target datalayout = "e-m:e-p270:32:32-p271:32:32-p272:64:64-i64:64-i128:128-f80:128-n8:16:32:64-S128"
target triple = "x86_64-pc-linux-gnu"

; Function Attrs: mustprogress nounwind uwtable
define linkonce_odr noundef float @_Zli5_reale(x86_fp80 noundef %0) #3 comdat {
  %2 = alloca x86_fp80, align 16
  store x86_fp80 %0, ptr %2, align 16, !tbaa !286
  %3 = load x86_fp80, ptr %2, align 16, !tbaa !286
  %4 = fptrunc x86_fp80 %3 to float
  ret float %4
}

; Function Attrs: inlinehint mustprogress nounwind uwtable
define internal void @_ZL5svmulfPKfPf(float noundef %0, ptr noundef %1, ptr noundef %2) #10 {
  %4 = alloca float, align 4
  %5 = alloca ptr, align 8
  %6 = alloca ptr, align 8
  store float %0, ptr %4, align 4, !tbaa !67
  store ptr %1, ptr %5, align 8, !tbaa !16
  store ptr %2, ptr %6, align 8, !tbaa !16
  %7 = load float, ptr %4, align 4, !tbaa !67
  %8 = load ptr, ptr %5, align 8, !tbaa !16
  %9 = getelementptr inbounds float, ptr %8, i64 0
  %10 = load float, ptr %9, align 4, !tbaa !67
  %11 = fmul float %7, %10
  %12 = load ptr, ptr %6, align 8, !tbaa !16
  %13 = getelementptr inbounds float, ptr %12, i64 0
  store float %11, ptr %13, align 4, !tbaa !67
  %14 = load float, ptr %4, align 4, !tbaa !67
  %15 = load ptr, ptr %5, align 8, !tbaa !16
  %16 = getelementptr inbounds float, ptr %15, i64 1
  %17 = load float, ptr %16, align 4, !tbaa !67
  %18 = fmul float %14, %17
  %19 = load ptr, ptr %6, align 8, !tbaa !16
  %20 = getelementptr inbounds float, ptr %19, i64 1
  store float %18, ptr %20, align 4, !tbaa !67
  %21 = load float, ptr %4, align 4, !tbaa !67
  %22 = load ptr, ptr %5, align 8, !tbaa !16
  %23 = getelementptr inbounds float, ptr %22, i64 2
  %24 = load float, ptr %23, align 4, !tbaa !67
  %25 = fmul float %21, %24
  %26 = load ptr, ptr %6, align 8, !tbaa !16
  %27 = getelementptr inbounds float, ptr %26, i64 2
  store float %25, ptr %27, align 4, !tbaa !67
  ret void
}

; Function Attrs: inlinehint mustprogress uwtable
define internal void @_ZL10clear_rvecPf(ptr noundef %0) #7 {
  %2 = alloca ptr, align 8
  store ptr %0, ptr %2, align 8, !tbaa !16
  %3 = call noundef float @_Zli5_reale(x86_fp80 noundef 0xK00000000000000000000)
  %4 = load ptr, ptr %2, align 8, !tbaa !16
  %5 = getelementptr inbounds float, ptr %4, i64 0
  store float %3, ptr %5, align 4, !tbaa !67
  %6 = call noundef float @_Zli5_reale(x86_fp80 noundef 0xK00000000000000000000)
  %7 = load ptr, ptr %2, align 8, !tbaa !16
  %8 = getelementptr inbounds float, ptr %7, i64 1
  store float %6, ptr %8, align 4, !tbaa !67
  %9 = call noundef float @_Zli5_reale(x86_fp80 noundef 0xK00000000000000000000)
  %10 = load ptr, ptr %2, align 8, !tbaa !16
  %11 = getelementptr inbounds float, ptr %10, i64 2
  store float %9, ptr %11, align 4, !tbaa !67
  ret void
}

; Function Attrs: inlinehint mustprogress nounwind uwtable
define internal void @_ZL10clear_dvecPd(ptr noundef %0) #10 {
  %2 = alloca ptr, align 8
  store ptr %0, ptr %2, align 8, !tbaa !284
  %3 = load ptr, ptr %2, align 8, !tbaa !284
  %4 = getelementptr inbounds double, ptr %3, i64 0
  store double 0.000000e+00, ptr %4, align 8, !tbaa !152
  %5 = load ptr, ptr %2, align 8, !tbaa !284
  %6 = getelementptr inbounds double, ptr %5, i64 1
  store double 0.000000e+00, ptr %6, align 8, !tbaa !152
  %7 = load ptr, ptr %2, align 8, !tbaa !284
  %8 = getelementptr inbounds double, ptr %7, i64 2
  store double 0.000000e+00, ptr %8, align 8, !tbaa !152
  ret void
}

; Function Attrs: mustprogress uwtable
define internal void @_ZL12average_dataPA3_fS0_PKfiPKiPPi(ptr noundef %0, ptr noundef %1, ptr noundef %2, i32 noundef %3, ptr noundef %4, ptr noundef %5) #0 {
  %7 = alloca ptr, align 8
  %8 = alloca ptr, align 8
  %9 = alloca ptr, align 8
  %10 = alloca i32, align 4
  %11 = alloca ptr, align 8
  %12 = alloca ptr, align 8
  %13 = alloca i32, align 4
  %14 = alloca i32, align 4
  %15 = alloca i32, align 4
  %16 = alloca i32, align 4
  %17 = alloca float, align 4
  %18 = alloca [3 x float], align 4
  %19 = alloca [3 x double], align 16
  %20 = alloca double, align 8
  store ptr %0, ptr %7, align 8, !tbaa !16
  store ptr %1, ptr %8, align 8, !tbaa !16
  store ptr %2, ptr %9, align 8, !tbaa !16
  store i32 %3, ptr %10, align 4, !tbaa !4
  store ptr %4, ptr %11, align 8, !tbaa !14
  store ptr %5, ptr %12, align 8, !tbaa !39
  call void @llvm.lifetime.start.p0(i64 4, ptr %13) #18
  call void @llvm.lifetime.start.p0(i64 4, ptr %14) #18
  call void @llvm.lifetime.start.p0(i64 4, ptr %15) #18
  call void @llvm.lifetime.start.p0(i64 4, ptr %16) #18
  call void @llvm.lifetime.start.p0(i64 4, ptr %17) #18
  call void @llvm.lifetime.start.p0(i64 12, ptr %18) #18
  call void @llvm.lifetime.start.p0(i64 24, ptr %19) #18
  call void @llvm.lifetime.start.p0(i64 8, ptr %20) #18
  store i32 0, ptr %13, align 4, !tbaa !4
  br label %21

21:                                               ; preds = %162, %6
  %22 = load i32, ptr %13, align 4, !tbaa !4
  %23 = load i32, ptr %10, align 4, !tbaa !4
  %24 = icmp slt i32 %22, %23
  br i1 %24, label %25, label %165

25:                                               ; preds = %21
  %26 = getelementptr inbounds [3 x double], ptr %19, i64 0, i64 0
  call void @_ZL10clear_dvecPd(ptr noundef %26)
  %27 = load ptr, ptr %8, align 8, !tbaa !16
  %28 = load i32, ptr %13, align 4, !tbaa !4
  %29 = sext i32 %28 to i64
  %30 = getelementptr inbounds [3 x float], ptr %27, i64 %29
  %31 = getelementptr inbounds [3 x float], ptr %30, i64 0, i64 0
  call void @_ZL10clear_rvecPf(ptr noundef %31)
  store double 0.000000e+00, ptr %20, align 8, !tbaa !152
  store i32 0, ptr %14, align 4, !tbaa !4
  br label %32

32:                                               ; preds = %111, %25
  %33 = load i32, ptr %14, align 4, !tbaa !4
  %34 = load ptr, ptr %11, align 8, !tbaa !14
  %35 = load i32, ptr %13, align 4, !tbaa !4
  %36 = sext i32 %35 to i64
  %37 = getelementptr inbounds i32, ptr %34, i64 %36
  %38 = load i32, ptr %37, align 4, !tbaa !4
  %39 = icmp slt i32 %33, %38
  br i1 %39, label %40, label %114

40:                                               ; preds = %32
  %41 = load ptr, ptr %12, align 8, !tbaa !39
  %42 = load i32, ptr %13, align 4, !tbaa !4
  %43 = sext i32 %42 to i64
  %44 = getelementptr inbounds ptr, ptr %41, i64 %43
  %45 = load ptr, ptr %44, align 8, !tbaa !14
  %46 = load i32, ptr %14, align 4, !tbaa !4
  %47 = sext i32 %46 to i64
  %48 = getelementptr inbounds i32, ptr %45, i64 %47
  %49 = load i32, ptr %48, align 4, !tbaa !4
  store i32 %49, ptr %15, align 4, !tbaa !4
  %50 = load ptr, ptr %9, align 8, !tbaa !16
  %51 = icmp ne ptr %50, null
  br i1 %51, label %52, label %87

52:                                               ; preds = %40
  %53 = load ptr, ptr %9, align 8, !tbaa !16
  %54 = load i32, ptr %15, align 4, !tbaa !4
  %55 = sext i32 %54 to i64
  %56 = getelementptr inbounds float, ptr %53, i64 %55
  %57 = load float, ptr %56, align 4, !tbaa !67
  store float %57, ptr %17, align 4, !tbaa !67
  %58 = load float, ptr %17, align 4, !tbaa !67
  %59 = load ptr, ptr %7, align 8, !tbaa !16
  %60 = load i32, ptr %15, align 4, !tbaa !4
  %61 = sext i32 %60 to i64
  %62 = getelementptr inbounds [3 x float], ptr %59, i64 %61
  %63 = getelementptr inbounds [3 x float], ptr %62, i64 0, i64 0
  %64 = getelementptr inbounds [3 x float], ptr %18, i64 0, i64 0
  call void @_ZL5svmulfPKfPf(float noundef %58, ptr noundef %63, ptr noundef %64)
  store i32 0, ptr %16, align 4, !tbaa !4
  br label %65

65:                                               ; preds = %79, %52
  %66 = load i32, ptr %16, align 4, !tbaa !4
  %67 = icmp slt i32 %66, 3
  br i1 %67, label %68, label %82

68:                                               ; preds = %65
  %69 = load i32, ptr %16, align 4, !tbaa !4
  %70 = sext i32 %69 to i64
  %71 = getelementptr inbounds [3 x float], ptr %18, i64 0, i64 %70
  %72 = load float, ptr %71, align 4, !tbaa !67
  %73 = fpext float %72 to double
  %74 = load i32, ptr %16, align 4, !tbaa !4
  %75 = sext i32 %74 to i64
  %76 = getelementptr inbounds [3 x double], ptr %19, i64 0, i64 %75
  %77 = load double, ptr %76, align 8, !tbaa !152
  %78 = fadd double %77, %73
  store double %78, ptr %76, align 8, !tbaa !152
  br label %79

79:                                               ; preds = %68
  %80 = load i32, ptr %16, align 4, !tbaa !4
  %81 = add nsw i32 %80, 1
  store i32 %81, ptr %16, align 4, !tbaa !4
  br label %65, !llvm.loop !255

82:                                               ; preds = %65
  %83 = load float, ptr %17, align 4, !tbaa !67
  %84 = fpext float %83 to double
  %85 = load double, ptr %20, align 8, !tbaa !152
  %86 = fadd double %85, %84
  store double %86, ptr %20, align 8, !tbaa !152
  br label %110

87:                                               ; preds = %40
  store i32 0, ptr %16, align 4, !tbaa !4
  br label %88

88:                                               ; preds = %106, %87
  %89 = load i32, ptr %16, align 4, !tbaa !4
  %90 = icmp slt i32 %89, 3
  br i1 %90, label %91, label %109

91:                                               ; preds = %88
  %92 = load ptr, ptr %7, align 8, !tbaa !16
  %93 = load i32, ptr %15, align 4, !tbaa !4
  %94 = sext i32 %93 to i64
  %95 = getelementptr inbounds [3 x float], ptr %92, i64 %94
  %96 = load i32, ptr %16, align 4, !tbaa !4
  %97 = sext i32 %96 to i64
  %98 = getelementptr inbounds [3 x float], ptr %95, i64 0, i64 %97
  %99 = load float, ptr %98, align 4, !tbaa !67
  %100 = fpext float %99 to double
  %101 = load i32, ptr %16, align 4, !tbaa !4
  %102 = sext i32 %101 to i64
  %103 = getelementptr inbounds [3 x double], ptr %19, i64 0, i64 %102
  %104 = load double, ptr %103, align 8, !tbaa !152
  %105 = fadd double %104, %100
  store double %105, ptr %103, align 8, !tbaa !152
  br label %106

106:                                              ; preds = %91
  %107 = load i32, ptr %16, align 4, !tbaa !4
  %108 = add nsw i32 %107, 1
  store i32 %108, ptr %16, align 4, !tbaa !4
  br label %88, !llvm.loop !256

109:                                              ; preds = %88
  br label %110

110:                                              ; preds = %109, %82
  br label %111

111:                                              ; preds = %110
  %112 = load i32, ptr %14, align 4, !tbaa !4
  %113 = add nsw i32 %112, 1
  store i32 %113, ptr %14, align 4, !tbaa !4
  br label %32, !llvm.loop !257

114:                                              ; preds = %32
  %115 = load ptr, ptr %9, align 8, !tbaa !16
  %116 = icmp ne ptr %115, null
  br i1 %116, label %117, label %140

117:                                              ; preds = %114
  store i32 0, ptr %16, align 4, !tbaa !4
  br label %118

118:                                              ; preds = %136, %117
  %119 = load i32, ptr %16, align 4, !tbaa !4
  %120 = icmp slt i32 %119, 3
  br i1 %120, label %121, label %139

121:                                              ; preds = %118
  %122 = load i32, ptr %16, align 4, !tbaa !4
  %123 = sext i32 %122 to i64
  %124 = getelementptr inbounds [3 x double], ptr %19, i64 0, i64 %123
  %125 = load double, ptr %124, align 8, !tbaa !152
  %126 = load double, ptr %20, align 8, !tbaa !152
  %127 = fdiv double %125, %126
  %128 = fptrunc double %127 to float
  %129 = load ptr, ptr %8, align 8, !tbaa !16
  %130 = load i32, ptr %13, align 4, !tbaa !4
  %131 = sext i32 %130 to i64
  %132 = getelementptr inbounds [3 x float], ptr %129, i64 %131
  %133 = load i32, ptr %16, align 4, !tbaa !4
  %134 = sext i32 %133 to i64
  %135 = getelementptr inbounds [3 x float], ptr %132, i64 0, i64 %134
  store float %128, ptr %135, align 4, !tbaa !67
  br label %136

136:                                              ; preds = %121
  %137 = load i32, ptr %16, align 4, !tbaa !4
  %138 = add nsw i32 %137, 1
  store i32 %138, ptr %16, align 4, !tbaa !4
  br label %118, !llvm.loop !258

139:                                              ; preds = %118
  br label %161

140:                                              ; preds = %114
  store i32 0, ptr %16, align 4, !tbaa !4
  br label %141

141:                                              ; preds = %157, %140
  %142 = load i32, ptr %16, align 4, !tbaa !4
  %143 = icmp slt i32 %142, 3
  br i1 %143, label %144, label %160

144:                                              ; preds = %141
  %145 = load i32, ptr %16, align 4, !tbaa !4
  %146 = sext i32 %145 to i64
  %147 = getelementptr inbounds [3 x double], ptr %19, i64 0, i64 %146
  %148 = load double, ptr %147, align 8, !tbaa !152
  %149 = fptrunc double %148 to float
  %150 = load ptr, ptr %8, align 8, !tbaa !16
  %151 = load i32, ptr %13, align 4, !tbaa !4
  %152 = sext i32 %151 to i64
  %153 = getelementptr inbounds [3 x float], ptr %150, i64 %152
  %154 = load i32, ptr %16, align 4, !tbaa !4
  %155 = sext i32 %154 to i64
  %156 = getelementptr inbounds [3 x float], ptr %153, i64 0, i64 %155
  store float %149, ptr %156, align 4, !tbaa !67
  br label %157

157:                                              ; preds = %144
  %158 = load i32, ptr %16, align 4, !tbaa !4
  %159 = add nsw i32 %158, 1
  store i32 %159, ptr %16, align 4, !tbaa !4
  br label %141, !llvm.loop !259

160:                                              ; preds = %141
  br label %161

161:                                              ; preds = %160, %139
  br label %162

162:                                              ; preds = %161
  %163 = load i32, ptr %13, align 4, !tbaa !4
  %164 = add nsw i32 %163, 1
  store i32 %164, ptr %13, align 4, !tbaa !4
  br label %21, !llvm.loop !260

165:                                              ; preds = %21
  call void @llvm.lifetime.end.p0(i64 8, ptr %20) #18
  call void @llvm.lifetime.end.p0(i64 24, ptr %19) #18
  call void @llvm.lifetime.end.p0(i64 12, ptr %18) #18
  call void @llvm.lifetime.end.p0(i64 4, ptr %17) #18
  call void @llvm.lifetime.end.p0(i64 4, ptr %16) #18
  call void @llvm.lifetime.end.p0(i64 4, ptr %15) #18
  call void @llvm.lifetime.end.p0(i64 4, ptr %14) #18
  call void @llvm.lifetime.end.p0(i64 4, ptr %13) #18
  ret void
}