; Function Attrs: mustprogress nofree norecurse nosync nounwind memory(read, argmem: readwrite, inaccessiblemem: none) uwtable
define internal fastcc void @_ZL12average_dataPA3_fS0_PKfiPKiPPi(ptr noundef readonly captures(none) %0, ptr noundef writeonly captures(none) %1, ptr noundef readonly %2, i32 noundef %3, ptr noundef readonly captures(none) %4, ptr noundef readonly captures(none) %5) unnamed_addr #18 {
  %7 = alloca [3 x float], align 4
  %8 = alloca [3 x double], align 16
  call void @llvm.lifetime.start.p0(i64 12, ptr nonnull %7) #22
  call void @llvm.lifetime.start.p0(i64 24, ptr nonnull %8) #22
  %9 = icmp sgt i32 %3, 0
  br i1 %9, label %.lr.ph61, label %._crit_edge62

.lr.ph61:                                         ; preds = %6
  %.not48 = icmp eq ptr %2, null
  %10 = getelementptr inbounds nuw i8, ptr %7, i64 4
  %11 = getelementptr inbounds nuw i8, ptr %7, i64 8
  %wide.trip.count100 = zext nneg i32 %3 to i64
  br i1 %.not48, label %.lr.ph61.split.us.split.us, label %.lr.ph61.split.split

.lr.ph61.split.us.split.us:                       ; preds = %.lr.ph61, %.loopexit50.us.us
  %indvars.iv97 = phi i64 [ %indvars.iv.next98, %.loopexit50.us.us ], [ 0, %.lr.ph61 ]
  call void @llvm.memset.p0.i64(ptr noundef nonnull align 16 dereferenceable(24) %8, i8 0, i64 24, i1 false)
  %12 = getelementptr inbounds nuw [3 x float], ptr %1, i64 %indvars.iv97
  store float 0.000000e+00, ptr %12, align 4, !tbaa !66
  %13 = getelementptr inbounds nuw i8, ptr %12, i64 4
  store float 0.000000e+00, ptr %13, align 4, !tbaa !66
  %14 = getelementptr inbounds nuw i8, ptr %12, i64 8
  store float 0.000000e+00, ptr %14, align 4, !tbaa !66
  %15 = getelementptr inbounds nuw i32, ptr %4, i64 %indvars.iv97
  %16 = load i32, ptr %15, align 4, !tbaa !4
  %17 = icmp sgt i32 %16, 0
  br i1 %17, label %.lr.ph.us.us, label %.preheader49.us.us.preheader

.preheader49.us.us.preheader:                     ; preds = %.loopexit.us.us.us, %.lr.ph61.split.us.split.us
  br label %.preheader49.us.us

.preheader49.us.us:                               ; preds = %.preheader49.us.us.preheader, %.preheader49.us.us
  %indvars.iv93 = phi i64 [ %indvars.iv.next94, %.preheader49.us.us ], [ 0, %.preheader49.us.us.preheader ]
  %18 = getelementptr inbounds nuw [3 x double], ptr %8, i64 0, i64 %indvars.iv93
  %19 = load double, ptr %18, align 8, !tbaa !116
  %20 = fptrunc double %19 to float
  %21 = getelementptr inbounds nuw [3 x float], ptr %1, i64 %indvars.iv97, i64 %indvars.iv93
  store float %20, ptr %21, align 4, !tbaa !66
  %indvars.iv.next94 = add nuw nsw i64 %indvars.iv93, 1
  %exitcond96.not = icmp eq i64 %indvars.iv.next94, 3
  br i1 %exitcond96.not, label %.loopexit50.us.us, label %.preheader49.us.us, !llvm.loop !192

.loopexit50.us.us:                                ; preds = %.preheader49.us.us
  %indvars.iv.next98 = add nuw nsw i64 %indvars.iv97, 1
  %exitcond101.not = icmp eq i64 %indvars.iv.next98, %wide.trip.count100
  br i1 %exitcond101.not, label %._crit_edge62, label %.lr.ph61.split.us.split.us, !llvm.loop !193

.lr.ph.us.us:                                     ; preds = %.lr.ph61.split.us.split.us
  %22 = getelementptr inbounds nuw ptr, ptr %5, i64 %indvars.iv97
  %23 = load ptr, ptr %22, align 8, !tbaa !41
  %wide.trip.count91 = zext nneg i32 %16 to i64
  br label %.preheader.us.us.us

.preheader.us.us.us:                              ; preds = %.loopexit.us.us.us, %.lr.ph.us.us
  %indvars.iv88 = phi i64 [ %indvars.iv.next89, %.loopexit.us.us.us ], [ 0, %.lr.ph.us.us ]
  %24 = getelementptr inbounds nuw i32, ptr %23, i64 %indvars.iv88
  %25 = load i32, ptr %24, align 4, !tbaa !4
  %26 = sext i32 %25 to i64
  br label %27

27:                                               ; preds = %27, %.preheader.us.us.us
  %indvars.iv84 = phi i64 [ %indvars.iv.next85, %27 ], [ 0, %.preheader.us.us.us ]
  %28 = getelementptr inbounds [3 x float], ptr %0, i64 %26, i64 %indvars.iv84
  %29 = load float, ptr %28, align 4, !tbaa !66
  %30 = fpext float %29 to double
  %31 = getelementptr inbounds nuw [3 x double], ptr %8, i64 0, i64 %indvars.iv84
  %32 = load double, ptr %31, align 8, !tbaa !116
  %33 = fadd double %32, %30
  store double %33, ptr %31, align 8, !tbaa !116
  %indvars.iv.next85 = add nuw nsw i64 %indvars.iv84, 1
  %exitcond87.not = icmp eq i64 %indvars.iv.next85, 3
  br i1 %exitcond87.not, label %.loopexit.us.us.us, label %27, !llvm.loop !194

.loopexit.us.us.us:                               ; preds = %27
  %indvars.iv.next89 = add nuw nsw i64 %indvars.iv88, 1
  %exitcond92.not = icmp eq i64 %indvars.iv.next89, %wide.trip.count91
  br i1 %exitcond92.not, label %.preheader49.us.us.preheader, label %.preheader.us.us.us, !llvm.loop !195

.lr.ph61.split.split:                             ; preds = %.lr.ph61, %.loopexit52
  %indvars.iv79 = phi i64 [ %indvars.iv.next80, %.loopexit52 ], [ 0, %.lr.ph61 ]
  call void @llvm.memset.p0.i64(ptr noundef nonnull align 16 dereferenceable(24) %8, i8 0, i64 24, i1 false)
  %34 = getelementptr inbounds nuw [3 x float], ptr %1, i64 %indvars.iv79
  store float 0.000000e+00, ptr %34, align 4, !tbaa !66
  %35 = getelementptr inbounds nuw i8, ptr %34, i64 4
  store float 0.000000e+00, ptr %35, align 4, !tbaa !66
  %36 = getelementptr inbounds nuw i8, ptr %34, i64 8
  store float 0.000000e+00, ptr %36, align 4, !tbaa !66
  %37 = getelementptr inbounds nuw i32, ptr %4, i64 %indvars.iv79
  %38 = load i32, ptr %37, align 4, !tbaa !4
  %39 = icmp sgt i32 %38, 0
  br i1 %39, label %.lr.ph, label %.preheader51

.lr.ph:                                           ; preds = %.lr.ph61.split.split
  %40 = getelementptr inbounds nuw ptr, ptr %5, i64 %indvars.iv79
  %41 = load ptr, ptr %40, align 8, !tbaa !41
  %wide.trip.count = zext nneg i32 %38 to i64
  br label %42

42:                                               ; preds = %.lr.ph, %64
  %indvars.iv71 = phi i64 [ 0, %.lr.ph ], [ %indvars.iv.next72, %64 ]
  %.056 = phi double [ 0.000000e+00, %.lr.ph ], [ %66, %64 ]
  %43 = getelementptr inbounds nuw i32, ptr %41, i64 %indvars.iv71
  %44 = load i32, ptr %43, align 4, !tbaa !4
  %45 = sext i32 %44 to i64
  %46 = getelementptr inbounds float, ptr %2, i64 %45
  %47 = load float, ptr %46, align 4, !tbaa !66
  %48 = getelementptr inbounds [3 x float], ptr %0, i64 %45
  %49 = load float, ptr %48, align 4, !tbaa !66
  %50 = fmul float %47, %49
  store float %50, ptr %7, align 4, !tbaa !66
  %51 = getelementptr inbounds nuw i8, ptr %48, i64 4
  %52 = load float, ptr %51, align 4, !tbaa !66
  %53 = fmul float %47, %52
  store float %53, ptr %10, align 4, !tbaa !66
  %54 = getelementptr inbounds nuw i8, ptr %48, i64 8
  %55 = load float, ptr %54, align 4, !tbaa !66
  %56 = fmul float %47, %55
  store float %56, ptr %11, align 4, !tbaa !66
  br label %57

57:                                               ; preds = %42, %57
  %indvars.iv = phi i64 [ 0, %42 ], [ %indvars.iv.next, %57 ]
  %58 = getelementptr inbounds nuw [3 x float], ptr %7, i64 0, i64 %indvars.iv
  %59 = load float, ptr %58, align 4, !tbaa !66
  %60 = fpext float %59 to double
  %61 = getelementptr inbounds nuw [3 x double], ptr %8, i64 0, i64 %indvars.iv
  %62 = load double, ptr %61, align 8, !tbaa !116
  %63 = fadd double %62, %60
  store double %63, ptr %61, align 8, !tbaa !116
  %indvars.iv.next = add nuw nsw i64 %indvars.iv, 1
  %exitcond.not = icmp eq i64 %indvars.iv.next, 3
  br i1 %exitcond.not, label %64, label %57, !llvm.loop !196

64:                                               ; preds = %57
  %65 = fpext float %47 to double
  %66 = fadd double %.056, %65
  %indvars.iv.next72 = add nuw nsw i64 %indvars.iv71, 1
  %exitcond74.not = icmp eq i64 %indvars.iv.next72, %wide.trip.count
  br i1 %exitcond74.not, label %.preheader51, label %42, !llvm.loop !195

.preheader51:                                     ; preds = %64, %.lr.ph61.split.split
  %.0.lcssa = phi double [ 0.000000e+00, %.lr.ph61.split.split ], [ %66, %64 ]
  br label %67

67:                                               ; preds = %.preheader51, %67
  %indvars.iv75 = phi i64 [ 0, %.preheader51 ], [ %indvars.iv.next76, %67 ]
  %68 = getelementptr inbounds nuw [3 x double], ptr %8, i64 0, i64 %indvars.iv75
  %69 = load double, ptr %68, align 8, !tbaa !116
  %70 = fdiv double %69, %.0.lcssa
  %71 = fptrunc double %70 to float
  %72 = getelementptr inbounds nuw [3 x float], ptr %1, i64 %indvars.iv79, i64 %indvars.iv75
  store float %71, ptr %72, align 4, !tbaa !66
  %indvars.iv.next76 = add nuw nsw i64 %indvars.iv75, 1
  %exitcond78.not = icmp eq i64 %indvars.iv.next76, 3
  br i1 %exitcond78.not, label %.loopexit52, label %67, !llvm.loop !197

.loopexit52:                                      ; preds = %67
  %indvars.iv.next80 = add nuw nsw i64 %indvars.iv79, 1
  %exitcond83.not = icmp eq i64 %indvars.iv.next80, %wide.trip.count100
  br i1 %exitcond83.not, label %._crit_edge62, label %.lr.ph61.split.split, !llvm.loop !193

._crit_edge62:                                    ; preds = %.loopexit52, %.loopexit50.us.us, %6
  call void @llvm.lifetime.end.p0(i64 24, ptr nonnull %8) #22
  call void @llvm.lifetime.end.p0(i64 12, ptr nonnull %7) #22
  ret void
}